; Function Attrs: mustprogress uwtable
define void @_ZN6google8protobuf9BoolValue9MergeImplERNS0_11MessageLiteERKS2_(ptr noundef nonnull align 8 dereferenceable(16) %to_msg, ptr nocapture noundef nonnull readonly align 8 dereferenceable(16) %from_msg) #3 align 2 {
entry:
  %0 = getelementptr inbounds i8, ptr %from_msg, i64 16
  %1 = load i8, ptr %0, align 8
  %2 = and i8 %1, 1
  %tobool.i.not = icmp eq i8 %2, 0
  br i1 %tobool.i.not, label %if.end, label %if.then

if.then:                                          ; preds = %entry
  %3 = getelementptr inbounds i8, ptr %to_msg, i64 16
  store i8 %2, ptr %3, align 8
  br label %if.end

if.end:                                           ; preds = %if.then, %entry
  %_internal_metadata_3 = getelementptr inbounds i8, ptr %from_msg, i64 8
  %4 = load i64, ptr %_internal_metadata_3, align 8
  %and.i8 = and i64 %4, 1
  %tobool.i9.not = icmp eq i64 %and.i8, 0
  br i1 %tobool.i9.not, label %_ZN6google8protobuf8internal16InternalMetadata9MergeFromINS0_15UnknownFieldSetEEEvRKS2_.exit, label %if.then.i.i

if.then.i.i:                                      ; preds = %if.end
  %_internal_metadata_ = getelementptr inbounds i8, ptr %to_msg, i64 8
  %and.i = and i64 %4, -2
  %5 = inttoptr i64 %and.i to ptr
  %unknown_fields.i.i = getelementptr inbounds i8, ptr %5, i64 8
  tail call void @_ZN6google8protobuf8internal16InternalMetadata11DoMergeFromINS0_15UnknownFieldSetEEEvRKT_(ptr noundef nonnull align 8 dereferenceable(8) %_internal_metadata_, ptr noundef nonnull align 8 dereferenceable(24) %unknown_fields.i.i)
  br label %_ZN6google8protobuf8internal16InternalMetadata9MergeFromINS0_15UnknownFieldSetEEEvRKS2_.exit

_ZN6google8protobuf8internal16InternalMetadata9MergeFromINS0_15UnknownFieldSetEEEvRKS2_.exit: ; preds = %if.then.i.i, %if.end
  ret void
}